target datalayout = "e-m:e-p270:32:32-p271:32:32-p272:64:64-i64:64-i128:128-f80:128-n8:16:32:64-S128"
target triple = "x86_64-unknown-linux-gnu"

%struct.grpc_tcp_listener = type { i32, ptr, ptr, %struct.grpc_resolved_address, i32, i32, i32, %struct.grpc_closure, %struct.grpc_closure, ptr, ptr, i32, %struct.grpc_closure, %struct.grpc_timer, i64 }
%struct.grpc_resolved_address = type { [128 x i8], i32 }
%struct.grpc_closure = type { %union.anon, ptr, ptr, %union.anon.0 }
%union.anon = type { ptr }
%union.anon.0 = type { i64 }
%struct.grpc_timer = type { i64, i32, i8, ptr, ptr, ptr, %union.anon.1 }
%union.anon.1 = type { %"struct.grpc_event_engine::experimental::EventEngine::TaskHandle" }
%"struct.grpc_event_engine::experimental::EventEngine::TaskHandle" = type { [2 x i64] }

; Function Attrs: mustprogress nounwind uwtable
define linkonce_odr noundef ptr @_Z17grpc_closure_initP12grpc_closurePFvPvN4absl12lts_202308026StatusEES1_(ptr noundef %closure, ptr noundef %cb, ptr noundef %cb_arg) #5 comdat {
entry:
  %closure.addr = alloca ptr, align 8
  %cb.addr = alloca ptr, align 8
  %cb_arg.addr = alloca ptr, align 8
  store ptr %closure, ptr %closure.addr, align 8
  store ptr %cb, ptr %cb.addr, align 8
  store ptr %cb_arg, ptr %cb_arg.addr, align 8
  %0 = load ptr, ptr %cb.addr, align 8
  %1 = load ptr, ptr %closure.addr, align 8
  %cb1 = getelementptr inbounds %struct.grpc_closure, ptr %1, i32 0, i32 1
  store ptr %0, ptr %cb1, align 8
  %2 = load ptr, ptr %cb_arg.addr, align 8
  %3 = load ptr, ptr %closure.addr, align 8
  %cb_arg2 = getelementptr inbounds %struct.grpc_closure, ptr %3, i32 0, i32 2
  store ptr %2, ptr %cb_arg2, align 8
  %4 = load ptr, ptr %closure.addr, align 8
  %error_data = getelementptr inbounds %struct.grpc_closure, ptr %4, i32 0, i32 3
  store i64 0, ptr %error_data, align 8
  %5 = load ptr, ptr %closure.addr, align 8
  ret ptr %5
}

; Function Attrs: mustprogress uwtable
define void @_Z47grpc_tcp_server_listener_initialize_retry_timerP17grpc_tcp_listener(ptr noundef %listener) #4 {
entry:
  %listener.addr = alloca ptr, align 8
  %.atomictmp = alloca i64, align 8
  store ptr %listener, ptr %listener.addr, align 8
  %0 = load ptr, ptr %listener.addr, align 8
  %retry_timer_armed = getelementptr inbounds %struct.grpc_tcp_listener, ptr %0, i32 0, i32 14
  store i64 0, ptr %.atomictmp, align 8
  %1 = load i64, ptr %.atomictmp, align 8
  store atomic i64 %1, ptr %retry_timer_armed monotonic, align 8
  %2 = load ptr, ptr %listener.addr, align 8
  %retry_timer = getelementptr inbounds %struct.grpc_tcp_listener, ptr %2, i32 0, i32 13
  call void @_Z21grpc_timer_init_unsetP10grpc_timer(ptr noundef %retry_timer)
  %3 = load ptr, ptr %listener.addr, align 8
  %retry_closure = getelementptr inbounds %struct.grpc_tcp_listener, ptr %3, i32 0, i32 12
  %4 = load ptr, ptr %listener.addr, align 8
  %call = call noundef ptr @_Z17grpc_closure_initP12grpc_closurePFvPvN4absl12lts_202308026StatusEES1_(ptr noundef %retry_closure, ptr noundef @_ZL23listener_retry_timer_cbPvN4absl12lts_202308026StatusE, ptr noundef %4)
  ret void
}