; Function Attrs: mustprogress uwtable
define void @_Z47grpc_tcp_server_listener_initialize_retry_timerP17grpc_tcp_listener(ptr noundef %listener) local_unnamed_addr #3 {
entry:
  %retry_timer_armed = getelementptr inbounds i8, ptr %listener, i64 344
  store atomic i64 0, ptr %retry_timer_armed monotonic, align 8
  %retry_timer = getelementptr inbounds i8, ptr %listener, i64 288
  tail call void @_Z21grpc_timer_init_unsetP10grpc_timer(ptr noundef nonnull %retry_timer)
  %cb1.i = getelementptr inbounds i8, ptr %listener, i64 264
  store ptr @_ZL23listener_retry_timer_cbPvN4absl12lts_202308026StatusE, ptr %cb1.i, align 8
  %cb_arg2.i = getelementptr inbounds i8, ptr %listener, i64 272
  store ptr %listener, ptr %cb_arg2.i, align 8
  %error_data.i = getelementptr inbounds i8, ptr %listener, i64 280
  store i64 0, ptr %error_data.i, align 8
  ret void
}